target datalayout = "e-m:e-p270:32:32-p271:32:32-p272:64:64-i64:64-i128:128-f80:128-n8:16:32:64-S128"
target triple = "x86_64-pc-linux-gnu"

%struct.mi_segment_s = type { %struct.mi_memid_s, i8, i8, i64, ptr, ptr, ptr, i8, i8, i64, i64, i64, i64, i64, i64, ptr, ptr, i64, i64, i32, [1 x %struct.mi_page_s] }
%struct.mi_memid_s = type { %union.anon, i8, i8, i8, i32 }
%union.anon = type { %struct.mi_memid_os_info }
%struct.mi_memid_os_info = type { ptr, i64 }
%struct.mi_page_s = type { i8, i8, i16, i16, %union.mi_page_flags_s, i8, ptr, ptr, i16, i8, i8, i64, ptr, i64, i64, ptr, ptr }
%union.mi_page_flags_s = type { i8 }
%union.pthread_mutex_t = type { %struct.__pthread_mutex_s }
%struct.__pthread_mutex_s = type { i32, i32, i32, i32, i32, i16, i16, %struct.__pthread_internal_list }
%struct.__pthread_internal_list = type { ptr, ptr }
%struct.mi_subproc_s = type { i64, i64, %union.pthread_mutex_t, %union.pthread_mutex_t, ptr, ptr, %struct.mi_memid_s }

; Function Attrs: inlinehint nounwind uwtable
define internal void @mi_lock_release(ptr noundef %0) #4 {
  %2 = alloca ptr, align 8
  store ptr %0, ptr %2, align 8, !tbaa !53
  %3 = load ptr, ptr %2, align 8, !tbaa !53
  %4 = call i32 @pthread_mutex_unlock(ptr noundef %3) #14
  ret void
}

; Function Attrs: inlinehint nounwind uwtable
define internal zeroext i1 @mi_lock_try_acquire(ptr noundef %0) #4 {
  %2 = alloca ptr, align 8
  store ptr %0, ptr %2, align 8, !tbaa !53
  %3 = load ptr, ptr %2, align 8, !tbaa !53
  %4 = call i32 @pthread_mutex_trylock(ptr noundef %3) #14
  %5 = icmp eq i32 %4, 0
  ret i1 %5
}

; Function Attrs: nounwind uwtable
define internal zeroext i1 @mi_arena_segment_os_clear_abandoned(ptr noundef %0, i1 noundef zeroext %1) #0 {
  %3 = alloca i1, align 1
  %4 = alloca ptr, align 8
  %5 = alloca i8, align 1
  %6 = alloca ptr, align 8
  %7 = alloca i32, align 4
  %8 = alloca i8, align 1
  %9 = alloca ptr, align 8
  %10 = alloca ptr, align 8
  %11 = alloca i64, align 8
  %12 = alloca i64, align 8
  %13 = alloca i64, align 8
  %14 = alloca i64, align 8
  %15 = alloca i64, align 8
  store ptr %0, ptr %4, align 8, !tbaa !3
  %16 = zext i1 %1 to i8
  store i8 %16, ptr %5, align 1, !tbaa !21
  call void @llvm.lifetime.start.p0(i64 8, ptr %6) #13
  %17 = load ptr, ptr %4, align 8, !tbaa !3
  %18 = getelementptr inbounds nuw %struct.mi_segment_s, ptr %17, i32 0, i32 4
  %19 = load ptr, ptr %18, align 8, !tbaa !24
  store ptr %19, ptr %6, align 8, !tbaa !25
  %20 = load i8, ptr %5, align 1, !tbaa !21, !range !22, !noundef !23
  %21 = trunc i8 %20 to i1
  br i1 %21, label %22, label %27

22:                                               ; preds = %2
  %23 = load ptr, ptr %6, align 8, !tbaa !25
  %24 = getelementptr inbounds nuw %struct.mi_subproc_s, ptr %23, i32 0, i32 2
  %25 = call zeroext i1 @mi_lock_try_acquire(ptr noundef %24) #12
  br i1 %25, label %27, label %26

26:                                               ; preds = %22
  store i1 false, ptr %3, align 1
  store i32 1, ptr %7, align 4
  br label %99

27:                                               ; preds = %22, %2
  call void @llvm.lifetime.start.p0(i64 1, ptr %8) #13
  store i8 0, ptr %8, align 1, !tbaa !21
  call void @llvm.lifetime.start.p0(i64 8, ptr %9) #13
  %28 = load ptr, ptr %4, align 8, !tbaa !3
  %29 = getelementptr inbounds nuw %struct.mi_segment_s, ptr %28, i32 0, i32 15
  %30 = load ptr, ptr %29, align 8, !tbaa !26
  store ptr %30, ptr %9, align 8, !tbaa !3
  call void @llvm.lifetime.start.p0(i64 8, ptr %10) #13
  %31 = load ptr, ptr %4, align 8, !tbaa !3
  %32 = getelementptr inbounds nuw %struct.mi_segment_s, ptr %31, i32 0, i32 16
  %33 = load ptr, ptr %32, align 8, !tbaa !27
  store ptr %33, ptr %10, align 8, !tbaa !3
  %34 = load ptr, ptr %9, align 8, !tbaa !3
  %35 = icmp ne ptr %34, null
  br i1 %35, label %45, label %36

36:                                               ; preds = %27
  %37 = load ptr, ptr %10, align 8, !tbaa !3
  %38 = icmp ne ptr %37, null
  br i1 %38, label %45, label %39

39:                                               ; preds = %36
  %40 = load ptr, ptr %6, align 8, !tbaa !25
  %41 = getelementptr inbounds nuw %struct.mi_subproc_s, ptr %40, i32 0, i32 4
  %42 = load ptr, ptr %41, align 8, !tbaa !28
  %43 = load ptr, ptr %4, align 8, !tbaa !3
  %44 = icmp eq ptr %42, %43
  br i1 %44, label %45, label %88

45:                                               ; preds = %39, %36, %27
  %46 = load ptr, ptr %10, align 8, !tbaa !3
  %47 = icmp ne ptr %46, null
  br i1 %47, label %48, label %52

48:                                               ; preds = %45
  %49 = load ptr, ptr %9, align 8, !tbaa !3
  %50 = load ptr, ptr %10, align 8, !tbaa !3
  %51 = getelementptr inbounds nuw %struct.mi_segment_s, ptr %50, i32 0, i32 15
  store ptr %49, ptr %51, align 8, !tbaa !26
  br label %56

52:                                               ; preds = %45
  %53 = load ptr, ptr %9, align 8, !tbaa !3
  %54 = load ptr, ptr %6, align 8, !tbaa !25
  %55 = getelementptr inbounds nuw %struct.mi_subproc_s, ptr %54, i32 0, i32 4
  store ptr %53, ptr %55, align 8, !tbaa !28
  br label %56

56:                                               ; preds = %52, %48
  %57 = load ptr, ptr %9, align 8, !tbaa !3
  %58 = icmp ne ptr %57, null
  br i1 %58, label %59, label %63

59:                                               ; preds = %56
  %60 = load ptr, ptr %10, align 8, !tbaa !3
  %61 = load ptr, ptr %9, align 8, !tbaa !3
  %62 = getelementptr inbounds nuw %struct.mi_segment_s, ptr %61, i32 0, i32 16
  store ptr %60, ptr %62, align 8, !tbaa !27
  br label %67

63:                                               ; preds = %56
  %64 = load ptr, ptr %10, align 8, !tbaa !3
  %65 = load ptr, ptr %6, align 8, !tbaa !25
  %66 = getelementptr inbounds nuw %struct.mi_subproc_s, ptr %65, i32 0, i32 5
  store ptr %64, ptr %66, align 8, !tbaa !30
  br label %67

67:                                               ; preds = %63, %59
  %68 = load ptr, ptr %4, align 8, !tbaa !3
  %69 = getelementptr inbounds nuw %struct.mi_segment_s, ptr %68, i32 0, i32 15
  store ptr null, ptr %69, align 8, !tbaa !26
  %70 = load ptr, ptr %4, align 8, !tbaa !3
  %71 = getelementptr inbounds nuw %struct.mi_segment_s, ptr %70, i32 0, i32 16
  store ptr null, ptr %71, align 8, !tbaa !27
  %72 = load ptr, ptr %6, align 8, !tbaa !25
  %73 = getelementptr inbounds nuw %struct.mi_subproc_s, ptr %72, i32 0, i32 0
  store i64 1, ptr %11, align 8, !tbaa !15
  %74 = load i64, ptr %11, align 8
  %75 = atomicrmw sub ptr %73, i64 %74 monotonic, align 8
  store i64 %75, ptr %12, align 8
  %76 = load ptr, ptr %6, align 8, !tbaa !25
  %77 = getelementptr inbounds nuw %struct.mi_subproc_s, ptr %76, i32 0, i32 1
  store i64 1, ptr %13, align 8, !tbaa !15
  %78 = load i64, ptr %13, align 8
  %79 = atomicrmw sub ptr %77, i64 %78 monotonic, align 8
  store i64 %79, ptr %14, align 8
  %80 = load i8, ptr %5, align 1, !tbaa !21, !range !22, !noundef !23
  %81 = trunc i8 %80 to i1
  br i1 %81, label %82, label %87

82:                                               ; preds = %67
  %83 = load ptr, ptr %4, align 8, !tbaa !3
  %84 = getelementptr inbounds nuw %struct.mi_segment_s, ptr %83, i32 0, i32 17
  %85 = call i64 @_mi_thread_id() #12
  store i64 %85, ptr %15, align 8, !tbaa !15
  %86 = load i64, ptr %15, align 8
  store atomic i64 %86, ptr %84 release, align 8
  br label %87

87:                                               ; preds = %82, %67
  store i8 1, ptr %8, align 1, !tbaa !21
  br label %88

88:                                               ; preds = %87, %39
  %89 = load i8, ptr %5, align 1, !tbaa !21, !range !22, !noundef !23
  %90 = trunc i8 %89 to i1
  br i1 %90, label %91, label %96

91:                                               ; preds = %88
  %92 = load ptr, ptr %4, align 8, !tbaa !3
  %93 = getelementptr inbounds nuw %struct.mi_segment_s, ptr %92, i32 0, i32 4
  %94 = load ptr, ptr %93, align 8, !tbaa !24
  %95 = getelementptr inbounds nuw %struct.mi_subproc_s, ptr %94, i32 0, i32 2
  call void @mi_lock_release(ptr noundef %95) #12
  br label %96

96:                                               ; preds = %91, %88
  %97 = load i8, ptr %8, align 1, !tbaa !21, !range !22, !noundef !23
  %98 = trunc i8 %97 to i1
  store i1 %98, ptr %3, align 1
  store i32 1, ptr %7, align 4
  call void @llvm.lifetime.end.p0(i64 8, ptr %10) #13
  call void @llvm.lifetime.end.p0(i64 8, ptr %9) #13
  call void @llvm.lifetime.end.p0(i64 1, ptr %8) #13
  br label %99

99:                                               ; preds = %96, %26
  call void @llvm.lifetime.end.p0(i64 8, ptr %6) #13
  %100 = load i1, ptr %3, align 1
  ret i1 %100
}