; Function Attrs: nounwind uwtable
define internal fastcc noundef zeroext i1 @mi_arena_segment_os_clear_abandoned(ptr noundef captures(address) %0, i1 noundef zeroext %1) unnamed_addr #0 {
  %3 = getelementptr inbounds nuw i8, ptr %0, i64 40
  %4 = load ptr, ptr %3, align 8, !tbaa !18
  br i1 %1, label %5, label %9

5:                                                ; preds = %2
  %6 = getelementptr inbounds nuw i8, ptr %4, i64 16
  %7 = tail call i32 @pthread_mutex_trylock(ptr noundef nonnull %6) #20
  %8 = icmp eq i32 %7, 0
  br i1 %8, label %9, label %.thread38

9:                                                ; preds = %5, %2
  %10 = getelementptr inbounds nuw i8, ptr %0, i64 120
  %11 = load ptr, ptr %10, align 8, !tbaa !19
  %12 = getelementptr inbounds nuw i8, ptr %0, i64 128
  %13 = load ptr, ptr %12, align 8, !tbaa !20
  %14 = icmp ne ptr %11, null
  %15 = icmp ne ptr %13, null
  %or.cond = select i1 %14, i1 true, i1 %15
  br i1 %or.cond, label %20, label %16

16:                                               ; preds = %9
  %17 = getelementptr inbounds nuw i8, ptr %4, i64 96
  %18 = load ptr, ptr %17, align 8, !tbaa !21
  %19 = icmp eq ptr %18, %0
  br i1 %19, label %.thread, label %35

20:                                               ; preds = %9
  br i1 %15, label %21, label %.thread

21:                                               ; preds = %20
  %22 = getelementptr inbounds nuw i8, ptr %13, i64 120
  store ptr %11, ptr %22, align 8, !tbaa !19
  br label %24

.thread:                                          ; preds = %16, %20
  %23 = getelementptr inbounds nuw i8, ptr %4, i64 96
  store ptr %11, ptr %23, align 8, !tbaa !21
  br label %24

24:                                               ; preds = %.thread, %21
  br i1 %14, label %25, label %27

25:                                               ; preds = %24
  %26 = getelementptr inbounds nuw i8, ptr %11, i64 128
  store ptr %13, ptr %26, align 8, !tbaa !20
  br label %29

27:                                               ; preds = %24
  %28 = getelementptr inbounds nuw i8, ptr %4, i64 104
  store ptr %13, ptr %28, align 8, !tbaa !23
  br label %29

29:                                               ; preds = %27, %25
  tail call void @llvm.memset.p0.i64(ptr noundef nonnull align 8 dereferenceable(16) %10, i8 0, i64 16, i1 false)
  %30 = atomicrmw sub ptr %4, i64 1 monotonic, align 8
  %31 = getelementptr inbounds nuw i8, ptr %4, i64 8
  %32 = atomicrmw sub ptr %31, i64 1 monotonic, align 8
  br i1 %1, label %.thread35, label %.thread38

.thread35:                                        ; preds = %29
  %33 = getelementptr inbounds nuw i8, ptr %0, i64 136
  %34 = tail call i64 @_mi_thread_id() #20
  store atomic i64 %34, ptr %33 release, align 8
  br label %36

35:                                               ; preds = %16
  br i1 %1, label %36, label %.thread38

36:                                               ; preds = %.thread35, %35
  %.03237 = phi i1 [ true, %.thread35 ], [ false, %35 ]
  %37 = load ptr, ptr %3, align 8, !tbaa !18
  %38 = getelementptr inbounds nuw i8, ptr %37, i64 16
  %39 = tail call i32 @pthread_mutex_unlock(ptr noundef nonnull %38) #20
  br label %.thread38

.thread38:                                        ; preds = %29, %35, %36, %5
  %.0 = phi i1 [ false, %5 ], [ %.03237, %36 ], [ false, %35 ], [ true, %29 ]
  ret i1 %.0
}